target datalayout = "e-m:e-p270:32:32-p271:32:32-p272:64:64-i64:64-i128:128-f80:128-n8:16:32:64-S128"
target triple = "x86_64-pc-linux-gnu"

%struct.AV1OBU = type { i32, ptr, i32, i32, ptr, i32, i32, i32 }
%struct.GetByteContext = type { ptr, ptr, ptr }
%struct.AV1Packet = type { ptr, i32, i32, i32 }

@.str.1 = private unnamed_addr constant [35 x i8] c"Invalid OBU of type %d, skipping.\0A\00", align 1
@.str.2 = private unnamed_addr constant [30 x i8] c"Assertion %s failed at %s:%d\0A\00", align 1
@.str.3 = private unnamed_addr constant [14 x i8] c"buf_size >= 0\00", align 1
@.str.4 = private unnamed_addr constant [24 x i8] c"libavcodec/bytestream.h\00", align 1
@ff_ctz_c.debruijn_ctz32 = internal constant [32 x i8] c"\00\01\1C\02\1D\0E\18\03\1E\16\14\0F\19\11\04\08\1F\1B\0D\17\15\13\10\07\1A\0C\12\06\0B\05\0A\09", align 16

; Function Attrs: alwaysinline nounwind willreturn memory(none) uwtable
define internal i32 @ff_ctz_c(i32 noundef %0) #7 {
  %2 = alloca i32, align 4
  store i32 %0, ptr %2, align 4, !tbaa !11
  %3 = load i32, ptr %2, align 4, !tbaa !11
  %4 = load i32, ptr %2, align 4, !tbaa !11
  %5 = sub i32 0, %4
  %6 = and i32 %3, %5
  %7 = mul i32 %6, 125613361
  %8 = lshr i32 %7, 27
  %9 = zext i32 %8 to i64
  %10 = getelementptr inbounds nuw [32 x i8], ptr @ff_ctz_c.debruijn_ctz32, i64 0, i64 %9
  %11 = load i8, ptr %10, align 1, !tbaa !43
  %12 = zext i8 %11 to i32
  ret i32 %12
}

; Function Attrs: inlinehint nounwind uwtable
define internal i32 @get_obu_bit_length(ptr noundef %0, i32 noundef %1, i32 noundef %2) #2 {
  %4 = alloca i32, align 4
  %5 = alloca ptr, align 8
  %6 = alloca i32, align 4
  %7 = alloca i32, align 4
  %8 = alloca i32, align 4
  %9 = alloca i32, align 4
  store ptr %0, ptr %5, align 8, !tbaa !9
  store i32 %1, ptr %6, align 4, !tbaa !11
  store i32 %2, ptr %7, align 4, !tbaa !11
  call void @llvm.lifetime.start.p0(i64 4, ptr %8) #9
  %10 = load i32, ptr %7, align 4, !tbaa !11
  %11 = icmp eq i32 %10, 4
  br i1 %11, label %18, label %12

12:                                               ; preds = %3
  %13 = load i32, ptr %7, align 4, !tbaa !11
  %14 = icmp eq i32 %13, 8
  br i1 %14, label %18, label %15

15:                                               ; preds = %12
  %16 = load i32, ptr %7, align 4, !tbaa !11
  %17 = icmp eq i32 %16, 6
  br i1 %17, label %18, label %25

18:                                               ; preds = %15, %12, %3
  %19 = load i32, ptr %6, align 4, !tbaa !11
  %20 = icmp sgt i32 %19, 268435455
  br i1 %20, label %21, label %22

21:                                               ; preds = %18
  store i32 -34, ptr %4, align 4
  store i32 1, ptr %9, align 4
  br label %71

22:                                               ; preds = %18
  %23 = load i32, ptr %6, align 4, !tbaa !11
  %24 = mul nsw i32 %23, 8
  store i32 %24, ptr %4, align 4
  store i32 1, ptr %9, align 4
  br label %71

25:                                               ; preds = %15
  br label %26

26:                                               ; preds = %40, %25
  %27 = load i32, ptr %6, align 4, !tbaa !11
  %28 = icmp sgt i32 %27, 0
  br i1 %28, label %29, label %38

29:                                               ; preds = %26
  %30 = load ptr, ptr %5, align 8, !tbaa !9
  %31 = load i32, ptr %6, align 4, !tbaa !11
  %32 = sub nsw i32 %31, 1
  %33 = sext i32 %32 to i64
  %34 = getelementptr inbounds i8, ptr %30, i64 %33
  %35 = load i8, ptr %34, align 1, !tbaa !43
  %36 = zext i8 %35 to i32
  %37 = icmp eq i32 %36, 0
  br label %38

38:                                               ; preds = %29, %26
  %39 = phi i1 [ false, %26 ], [ %37, %29 ]
  br i1 %39, label %40, label %43

40:                                               ; preds = %38
  %41 = load i32, ptr %6, align 4, !tbaa !11
  %42 = add nsw i32 %41, -1
  store i32 %42, ptr %6, align 4, !tbaa !11
  br label %26, !llvm.loop !44

43:                                               ; preds = %38
  %44 = load i32, ptr %6, align 4, !tbaa !11
  %45 = icmp ne i32 %44, 0
  br i1 %45, label %47, label %46

46:                                               ; preds = %43
  store i32 0, ptr %4, align 4
  store i32 1, ptr %9, align 4
  br label %71

47:                                               ; preds = %43
  %48 = load ptr, ptr %5, align 8, !tbaa !9
  %49 = load i32, ptr %6, align 4, !tbaa !11
  %50 = sub nsw i32 %49, 1
  %51 = sext i32 %50 to i64
  %52 = getelementptr inbounds i8, ptr %48, i64 %51
  %53 = load i8, ptr %52, align 1, !tbaa !43
  %54 = zext i8 %53 to i32
  store i32 %54, ptr %8, align 4, !tbaa !11
  %55 = load i32, ptr %6, align 4, !tbaa !11
  %56 = icmp sgt i32 %55, 268435455
  br i1 %56, label %57, label %58

57:                                               ; preds = %47
  store i32 -34, ptr %4, align 4
  store i32 1, ptr %9, align 4
  br label %71

58:                                               ; preds = %47
  %59 = load i32, ptr %6, align 4, !tbaa !11
  %60 = mul nsw i32 %59, 8
  store i32 %60, ptr %6, align 4, !tbaa !11
  %61 = load i32, ptr %8, align 4, !tbaa !11
  %62 = icmp ne i32 %61, 0
  br i1 %62, label %63, label %69

63:                                               ; preds = %58
  %64 = load i32, ptr %8, align 4, !tbaa !11
  %65 = call i32 @ff_ctz_c(i32 noundef %64) #11
  %66 = add nsw i32 %65, 1
  %67 = load i32, ptr %6, align 4, !tbaa !11
  %68 = sub nsw i32 %67, %66
  store i32 %68, ptr %6, align 4, !tbaa !11
  br label %69

69:                                               ; preds = %63, %58
  %70 = load i32, ptr %6, align 4, !tbaa !11
  store i32 %70, ptr %4, align 4
  store i32 1, ptr %9, align 4
  br label %71

71:                                               ; preds = %69, %57, %46, %22, %21
  call void @llvm.lifetime.end.p0(i64 4, ptr %8) #9
  %72 = load i32, ptr %4, align 4
  ret i32 %72
}

; Function Attrs: alwaysinline nounwind uwtable
define internal void @bytestream2_skip(ptr noundef %0, i32 noundef %1) #4 {
  %3 = alloca ptr, align 8
  %4 = alloca i32, align 4
  store ptr %0, ptr %3, align 8, !tbaa !39
  store i32 %1, ptr %4, align 4, !tbaa !11
  %5 = load ptr, ptr %3, align 8, !tbaa !39
  %6 = getelementptr inbounds nuw %struct.GetByteContext, ptr %5, i32 0, i32 1
  %7 = load ptr, ptr %6, align 8, !tbaa !42
  %8 = load ptr, ptr %3, align 8, !tbaa !39
  %9 = getelementptr inbounds nuw %struct.GetByteContext, ptr %8, i32 0, i32 0
  %10 = load ptr, ptr %9, align 8, !tbaa !34
  %11 = ptrtoint ptr %7 to i64
  %12 = ptrtoint ptr %10 to i64
  %13 = sub i64 %11, %12
  %14 = load i32, ptr %4, align 4, !tbaa !11
  %15 = zext i32 %14 to i64
  %16 = icmp sgt i64 %13, %15
  br i1 %16, label %17, label %20

17:                                               ; preds = %2
  %18 = load i32, ptr %4, align 4, !tbaa !11
  %19 = zext i32 %18 to i64
  br label %30

20:                                               ; preds = %2
  %21 = load ptr, ptr %3, align 8, !tbaa !39
  %22 = getelementptr inbounds nuw %struct.GetByteContext, ptr %21, i32 0, i32 1
  %23 = load ptr, ptr %22, align 8, !tbaa !42
  %24 = load ptr, ptr %3, align 8, !tbaa !39
  %25 = getelementptr inbounds nuw %struct.GetByteContext, ptr %24, i32 0, i32 0
  %26 = load ptr, ptr %25, align 8, !tbaa !34
  %27 = ptrtoint ptr %23 to i64
  %28 = ptrtoint ptr %26 to i64
  %29 = sub i64 %27, %28
  br label %30

30:                                               ; preds = %20, %17
  %31 = phi i64 [ %19, %17 ], [ %29, %20 ]
  %32 = load ptr, ptr %3, align 8, !tbaa !39
  %33 = getelementptr inbounds nuw %struct.GetByteContext, ptr %32, i32 0, i32 0
  %34 = load ptr, ptr %33, align 8, !tbaa !34
  %35 = getelementptr inbounds i8, ptr %34, i64 %31
  store ptr %35, ptr %33, align 8, !tbaa !34
  ret void
}

; Function Attrs: alwaysinline nounwind uwtable
define internal i32 @bytestream2_get_bytes_left(ptr noundef %0) #4 {
  %2 = alloca ptr, align 8
  store ptr %0, ptr %2, align 8, !tbaa !39
  %3 = load ptr, ptr %2, align 8, !tbaa !39
  %4 = getelementptr inbounds nuw %struct.GetByteContext, ptr %3, i32 0, i32 1
  %5 = load ptr, ptr %4, align 8, !tbaa !42
  %6 = load ptr, ptr %2, align 8, !tbaa !39
  %7 = getelementptr inbounds nuw %struct.GetByteContext, ptr %6, i32 0, i32 0
  %8 = load ptr, ptr %7, align 8, !tbaa !34
  %9 = ptrtoint ptr %5 to i64
  %10 = ptrtoint ptr %8 to i64
  %11 = sub i64 %9, %10
  %12 = trunc i64 %11 to i32
  ret i32 %12
}

; Function Attrs: alwaysinline nounwind uwtable
define internal void @bytestream2_init(ptr noundef %0, ptr noundef %1, i32 noundef %2) #4 {
  %4 = alloca ptr, align 8
  %5 = alloca ptr, align 8
  %6 = alloca i32, align 4
  store ptr %0, ptr %4, align 8, !tbaa !39
  store ptr %1, ptr %5, align 8, !tbaa !9
  store i32 %2, ptr %6, align 4, !tbaa !11
  br label %7

7:                                                ; preds = %3
  %8 = load i32, ptr %6, align 4, !tbaa !11
  %9 = icmp sge i32 %8, 0
  br i1 %9, label %11, label %10

10:                                               ; preds = %7
  call void (ptr, i32, ptr, ...) @av_log(ptr noundef null, i32 noundef 0, ptr noundef @.str.2, ptr noundef @.str.3, ptr noundef @.str.4, i32 noundef 141)
  call void @abort() #10
  unreachable

11:                                               ; preds = %7
  br label %12

12:                                               ; preds = %11
  %13 = load ptr, ptr %5, align 8, !tbaa !9
  %14 = load ptr, ptr %4, align 8, !tbaa !39
  %15 = getelementptr inbounds nuw %struct.GetByteContext, ptr %14, i32 0, i32 0
  store ptr %13, ptr %15, align 8, !tbaa !34
  %16 = load ptr, ptr %5, align 8, !tbaa !9
  %17 = load ptr, ptr %4, align 8, !tbaa !39
  %18 = getelementptr inbounds nuw %struct.GetByteContext, ptr %17, i32 0, i32 2
  store ptr %16, ptr %18, align 8, !tbaa !41
  %19 = load ptr, ptr %5, align 8, !tbaa !9
  %20 = load i32, ptr %6, align 4, !tbaa !11
  %21 = sext i32 %20 to i64
  %22 = getelementptr inbounds i8, ptr %19, i64 %21
  %23 = load ptr, ptr %4, align 8, !tbaa !39
  %24 = getelementptr inbounds nuw %struct.GetByteContext, ptr %23, i32 0, i32 1
  store ptr %22, ptr %24, align 8, !tbaa !42
  ret void
}

; Function Attrs: nounwind uwtable
define i32 @ff_av1_packet_split(ptr noundef %0, ptr noundef %1, i32 noundef %2, ptr noundef %3) #0 {
  %5 = alloca i32, align 4
  %6 = alloca ptr, align 8
  %7 = alloca ptr, align 8
  %8 = alloca i32, align 4
  %9 = alloca ptr, align 8
  %10 = alloca %struct.GetByteContext, align 8
  %11 = alloca i32, align 4
  %12 = alloca ptr, align 8
  %13 = alloca i32, align 4
  %14 = alloca ptr, align 8
  %15 = alloca i32, align 4
  store ptr %0, ptr %6, align 8, !tbaa !28
  store ptr %1, ptr %7, align 8, !tbaa !9
  store i32 %2, ptr %8, align 4, !tbaa !11
  store ptr %3, ptr %9, align 8, !tbaa !13
  call void @llvm.lifetime.start.p0(i64 24, ptr %10) #9
  call void @llvm.lifetime.start.p0(i64 4, ptr %11) #9
  %16 = load ptr, ptr %7, align 8, !tbaa !9
  %17 = load i32, ptr %8, align 4, !tbaa !11
  call void @bytestream2_init(ptr noundef %10, ptr noundef %16, i32 noundef %17)
  %18 = load ptr, ptr %6, align 8, !tbaa !28
  %19 = getelementptr inbounds nuw %struct.AV1Packet, ptr %18, i32 0, i32 1
  store i32 0, ptr %19, align 8, !tbaa !30
  br label %20

20:                                               ; preds = %136, %134, %4
  %21 = call i32 @bytestream2_get_bytes_left(ptr noundef %10)
  %22 = icmp sgt i32 %21, 0
  br i1 %22, label %23, label %137

23:                                               ; preds = %20
  call void @llvm.lifetime.start.p0(i64 8, ptr %12) #9
  %24 = load ptr, ptr %6, align 8, !tbaa !28
  %25 = getelementptr inbounds nuw %struct.AV1Packet, ptr %24, i32 0, i32 2
  %26 = load i32, ptr %25, align 4, !tbaa !32
  %27 = load ptr, ptr %6, align 8, !tbaa !28
  %28 = getelementptr inbounds nuw %struct.AV1Packet, ptr %27, i32 0, i32 1
  %29 = load i32, ptr %28, align 8, !tbaa !30
  %30 = add nsw i32 %29, 1
  %31 = icmp slt i32 %26, %30
  br i1 %31, label %32, label %72

32:                                               ; preds = %23
  call void @llvm.lifetime.start.p0(i64 4, ptr %13) #9
  %33 = load ptr, ptr %6, align 8, !tbaa !28
  %34 = getelementptr inbounds nuw %struct.AV1Packet, ptr %33, i32 0, i32 2
  %35 = load i32, ptr %34, align 4, !tbaa !32
  %36 = add nsw i32 %35, 1
  store i32 %36, ptr %13, align 4, !tbaa !11
  call void @llvm.lifetime.start.p0(i64 8, ptr %14) #9
  %37 = load i32, ptr %13, align 4, !tbaa !11
  %38 = sext i32 %37 to i64
  %39 = icmp uge i64 %38, 44739242
  br i1 %39, label %40, label %41

40:                                               ; preds = %32
  store i32 -12, ptr %5, align 4
  store i32 1, ptr %15, align 4
  br label %69

41:                                               ; preds = %32
  %42 = load ptr, ptr %6, align 8, !tbaa !28
  %43 = getelementptr inbounds nuw %struct.AV1Packet, ptr %42, i32 0, i32 0
  %44 = load ptr, ptr %43, align 8, !tbaa !33
  %45 = load ptr, ptr %6, align 8, !tbaa !28
  %46 = getelementptr inbounds nuw %struct.AV1Packet, ptr %45, i32 0, i32 3
  %47 = load i32, ptr %13, align 4, !tbaa !11
  %48 = sext i32 %47 to i64
  %49 = mul i64 %48, 48
  %50 = call ptr @av_fast_realloc(ptr noundef %44, ptr noundef %46, i64 noundef %49)
  store ptr %50, ptr %14, align 8, !tbaa !4
  %51 = load ptr, ptr %14, align 8, !tbaa !4
  %52 = icmp ne ptr %51, null
  br i1 %52, label %54, label %53

53:                                               ; preds = %41
  store i32 -12, ptr %5, align 4
  store i32 1, ptr %15, align 4
  br label %69

54:                                               ; preds = %41
  %55 = load ptr, ptr %14, align 8, !tbaa !4
  %56 = load ptr, ptr %6, align 8, !tbaa !28
  %57 = getelementptr inbounds nuw %struct.AV1Packet, ptr %56, i32 0, i32 0
  store ptr %55, ptr %57, align 8, !tbaa !33
  %58 = load ptr, ptr %6, align 8, !tbaa !28
  %59 = getelementptr inbounds nuw %struct.AV1Packet, ptr %58, i32 0, i32 0
  %60 = load ptr, ptr %59, align 8, !tbaa !33
  %61 = load ptr, ptr %6, align 8, !tbaa !28
  %62 = getelementptr inbounds nuw %struct.AV1Packet, ptr %61, i32 0, i32 2
  %63 = load i32, ptr %62, align 4, !tbaa !32
  %64 = sext i32 %63 to i64
  %65 = getelementptr inbounds %struct.AV1OBU, ptr %60, i64 %64
  call void @llvm.memset.p0.i64(ptr align 8 %65, i8 0, i64 48, i1 false)
  %66 = load i32, ptr %13, align 4, !tbaa !11
  %67 = load ptr, ptr %6, align 8, !tbaa !28
  %68 = getelementptr inbounds nuw %struct.AV1Packet, ptr %67, i32 0, i32 2
  store i32 %66, ptr %68, align 4, !tbaa !32
  store i32 0, ptr %15, align 4
  br label %69

69:                                               ; preds = %54, %53, %40
  call void @llvm.lifetime.end.p0(i64 8, ptr %14) #9
  call void @llvm.lifetime.end.p0(i64 4, ptr %13) #9
  %70 = load i32, ptr %15, align 4
  switch i32 %70, label %134 [
    i32 0, label %71
  ]

71:                                               ; preds = %69
  br label %72

72:                                               ; preds = %71, %23
  %73 = load ptr, ptr %6, align 8, !tbaa !28
  %74 = getelementptr inbounds nuw %struct.AV1Packet, ptr %73, i32 0, i32 0
  %75 = load ptr, ptr %74, align 8, !tbaa !33
  %76 = load ptr, ptr %6, align 8, !tbaa !28
  %77 = getelementptr inbounds nuw %struct.AV1Packet, ptr %76, i32 0, i32 1
  %78 = load i32, ptr %77, align 8, !tbaa !30
  %79 = sext i32 %78 to i64
  %80 = getelementptr inbounds %struct.AV1OBU, ptr %75, i64 %79
  store ptr %80, ptr %12, align 8, !tbaa !4
  %81 = load ptr, ptr %12, align 8, !tbaa !4
  %82 = getelementptr inbounds nuw %struct.GetByteContext, ptr %10, i32 0, i32 0
  %83 = load ptr, ptr %82, align 8, !tbaa !34
  %84 = call i32 @bytestream2_get_bytes_left(ptr noundef %10)
  %85 = load ptr, ptr %9, align 8, !tbaa !13
  %86 = call i32 @ff_av1_extract_obu(ptr noundef %81, ptr noundef %83, i32 noundef %84, ptr noundef %85)
  store i32 %86, ptr %11, align 4, !tbaa !11
  %87 = load i32, ptr %11, align 4, !tbaa !11
  %88 = icmp slt i32 %87, 0
  br i1 %88, label %89, label %91

89:                                               ; preds = %72
  %90 = load i32, ptr %11, align 4, !tbaa !11
  store i32 %90, ptr %5, align 4
  store i32 1, ptr %15, align 4
  br label %134

91:                                               ; preds = %72
  %92 = load i32, ptr %11, align 4, !tbaa !11
  call void @bytestream2_skip(ptr noundef %10, i32 noundef %92)
  %93 = load ptr, ptr %12, align 8, !tbaa !4
  %94 = getelementptr inbounds nuw %struct.AV1OBU, ptr %93, i32 0, i32 1
  %95 = load ptr, ptr %94, align 8, !tbaa !18
  %96 = load ptr, ptr %12, align 8, !tbaa !4
  %97 = getelementptr inbounds nuw %struct.AV1OBU, ptr %96, i32 0, i32 0
  %98 = load i32, ptr %97, align 8, !tbaa !21
  %99 = load ptr, ptr %12, align 8, !tbaa !4
  %100 = getelementptr inbounds nuw %struct.AV1OBU, ptr %99, i32 0, i32 5
  %101 = load i32, ptr %100, align 8, !tbaa !14
  %102 = call i32 @get_obu_bit_length(ptr noundef %95, i32 noundef %98, i32 noundef %101)
  %103 = load ptr, ptr %12, align 8, !tbaa !4
  %104 = getelementptr inbounds nuw %struct.AV1OBU, ptr %103, i32 0, i32 2
  store i32 %102, ptr %104, align 8, !tbaa !36
  %105 = load ptr, ptr %12, align 8, !tbaa !4
  %106 = getelementptr inbounds nuw %struct.AV1OBU, ptr %105, i32 0, i32 2
  %107 = load i32, ptr %106, align 8, !tbaa !36
  %108 = icmp slt i32 %107, 0
  br i1 %108, label %124, label %109

109:                                              ; preds = %91
  %110 = load ptr, ptr %12, align 8, !tbaa !4
  %111 = getelementptr inbounds nuw %struct.AV1OBU, ptr %110, i32 0, i32 2
  %112 = load i32, ptr %111, align 8, !tbaa !36
  %113 = icmp eq i32 %112, 0
  br i1 %113, label %114, label %129

114:                                              ; preds = %109
  %115 = load ptr, ptr %12, align 8, !tbaa !4
  %116 = getelementptr inbounds nuw %struct.AV1OBU, ptr %115, i32 0, i32 5
  %117 = load i32, ptr %116, align 8, !tbaa !14
  %118 = icmp ne i32 %117, 2
  br i1 %118, label %119, label %129

119:                                              ; preds = %114
  %120 = load ptr, ptr %12, align 8, !tbaa !4
  %121 = getelementptr inbounds nuw %struct.AV1OBU, ptr %120, i32 0, i32 5
  %122 = load i32, ptr %121, align 8, !tbaa !14
  %123 = icmp ne i32 %122, 15
  br i1 %123, label %124, label %129

124:                                              ; preds = %119, %91
  %125 = load ptr, ptr %9, align 8, !tbaa !13
  %126 = load ptr, ptr %12, align 8, !tbaa !4
  %127 = getelementptr inbounds nuw %struct.AV1OBU, ptr %126, i32 0, i32 5
  %128 = load i32, ptr %127, align 8, !tbaa !14
  call void (ptr, i32, ptr, ...) @av_log(ptr noundef %125, i32 noundef 16, ptr noundef @.str.1, i32 noundef %128)
  store i32 2, ptr %15, align 4
  br label %134, !llvm.loop !37

129:                                              ; preds = %119, %114, %109
  %130 = load ptr, ptr %6, align 8, !tbaa !28
  %131 = getelementptr inbounds nuw %struct.AV1Packet, ptr %130, i32 0, i32 1
  %132 = load i32, ptr %131, align 8, !tbaa !30
  %133 = add nsw i32 %132, 1
  store i32 %133, ptr %131, align 8, !tbaa !30
  store i32 0, ptr %15, align 4
  br label %134

134:                                              ; preds = %129, %124, %89, %69
  call void @llvm.lifetime.end.p0(i64 8, ptr %12) #9
  %135 = load i32, ptr %15, align 4
  switch i32 %135, label %138 [
    i32 0, label %136
    i32 2, label %20
  ]

136:                                              ; preds = %134
  br label %20, !llvm.loop !37

137:                                              ; preds = %20
  store i32 0, ptr %5, align 4
  store i32 1, ptr %15, align 4
  br label %138

138:                                              ; preds = %137, %134
  call void @llvm.lifetime.end.p0(i64 4, ptr %11) #9
  call void @llvm.lifetime.end.p0(i64 24, ptr %10) #9
  %139 = load i32, ptr %5, align 4
  ret i32 %139
}