; Function Attrs: nounwind uwtable
define range(i32 -2147483648, 1) i32 @ff_av1_packet_split(ptr noundef %0, ptr noundef %1, i32 noundef %2, ptr noundef %3) local_unnamed_addr #0 {
  %5 = icmp sgt i32 %2, -1
  br i1 %5, label %bytestream2_init.exit, label %6

6:                                                ; preds = %4
  tail call void (ptr, i32, ptr, ...) @av_log(ptr noundef null, i32 noundef 0, ptr noundef nonnull @.str.2, ptr noundef nonnull @.str.3, ptr noundef nonnull @.str.4, i32 noundef 141) #6
  tail call void @abort() #7
  unreachable

bytestream2_init.exit:                            ; preds = %4
  %7 = zext nneg i32 %2 to i64
  %8 = getelementptr inbounds nuw i8, ptr %1, i64 %7
  %9 = getelementptr inbounds nuw i8, ptr %0, i64 8
  store i32 0, ptr %9, align 8, !tbaa !20
  %10 = ptrtoint ptr %8 to i64
  %.not78 = icmp eq i32 %2, 0
  br i1 %.not78, label %.thread65, label %.lr.ph

.lr.ph:                                           ; preds = %bytestream2_init.exit
  %11 = getelementptr inbounds nuw i8, ptr %0, i64 12
  %12 = getelementptr inbounds nuw i8, ptr %0, i64 16
  br label %13

13:                                               ; preds = %.lr.ph, %75
  %14 = phi i32 [ %2, %.lr.ph ], [ %78, %75 ]
  %15 = phi i64 [ %7, %.lr.ph ], [ %77, %75 ]
  %.sroa.0.071 = phi ptr [ %1, %.lr.ph ], [ %38, %75 ]
  %16 = load i32, ptr %11, align 4, !tbaa !23
  %17 = load i32, ptr %9, align 8, !tbaa !20
  %.not = icmp sgt i32 %16, %17
  br i1 %.not, label %29, label %18

18:                                               ; preds = %13
  %19 = add nsw i32 %16, 1
  %20 = icmp ugt i32 %19, 44739241
  br i1 %20, label %.thread65, label %21

21:                                               ; preds = %18
  %22 = load ptr, ptr %0, align 8, !tbaa !24
  %narrow = mul nuw nsw i32 %19, 48
  %23 = zext nneg i32 %narrow to i64
  %24 = tail call ptr @av_fast_realloc(ptr noundef %22, ptr noundef nonnull %12, i64 noundef %23) #6
  %.not46 = icmp eq ptr %24, null
  br i1 %.not46, label %.thread65, label %25

25:                                               ; preds = %21
  store ptr %24, ptr %0, align 8, !tbaa !24
  %26 = load i32, ptr %11, align 4, !tbaa !23
  %27 = sext i32 %26 to i64
  %28 = getelementptr inbounds %struct.AV1OBU, ptr %24, i64 %27
  tail call void @llvm.memset.p0.i64(ptr noundef nonnull align 8 dereferenceable(48) %28, i8 0, i64 48, i1 false)
  store i32 %19, ptr %11, align 4, !tbaa !23
  %.pre = load i32, ptr %9, align 8, !tbaa !20
  br label %29

29:                                               ; preds = %25, %13
  %30 = phi i32 [ %.pre, %25 ], [ %17, %13 ]
  %31 = load ptr, ptr %0, align 8, !tbaa !24
  %32 = sext i32 %30 to i64
  %33 = getelementptr inbounds %struct.AV1OBU, ptr %31, i64 %32
  %34 = tail call i32 @ff_av1_extract_obu(ptr noundef %33, ptr noundef %.sroa.0.071, i32 noundef %14, ptr noundef %3)
  %35 = icmp slt i32 %34, 0
  br i1 %35, label %.thread65, label %36

36:                                               ; preds = %29
  %37 = zext nneg i32 %34 to i64
  %..i = tail call i64 @llvm.smin.i64(i64 %15, i64 %37)
  %38 = getelementptr inbounds i8, ptr %.sroa.0.071, i64 %..i
  %39 = getelementptr inbounds nuw i8, ptr %33, i64 8
  %40 = load ptr, ptr %39, align 8, !tbaa !16
  %41 = load i32, ptr %33, align 8, !tbaa !17
  %42 = getelementptr inbounds nuw i8, ptr %33, i64 32
  %43 = load i32, ptr %42, align 8, !tbaa !9
  switch i32 %43, label %.preheader.i [
    i32 8, label %45
    i32 6, label %45
    i32 4, label %45
  ]

.preheader.i:                                     ; preds = %36
  %invariant.gep.i = getelementptr i8, ptr %40, i64 -1
  %44 = icmp sgt i32 %41, 0
  br i1 %44, label %.lr.ph.i, label %.critedge.i

45:                                               ; preds = %36, %36, %36
  %46 = icmp sgt i32 %41, 268435455
  %47 = shl nsw i32 %41, 3
  br i1 %46, label %get_obu_bit_length.exit.thread, label %get_obu_bit_length.exit

.lr.ph.i:                                         ; preds = %.preheader.i, %51
  %.02129.i = phi i32 [ %52, %51 ], [ %41, %.preheader.i ]
  %48 = zext nneg i32 %.02129.i to i64
  %gep.i = getelementptr i8, ptr %invariant.gep.i, i64 %48
  %49 = load i8, ptr %gep.i, align 1, !tbaa !4
  %50 = icmp eq i8 %49, 0
  br i1 %50, label %51, label %55

51:                                               ; preds = %.lr.ph.i
  %52 = add nsw i32 %.02129.i, -1
  %53 = icmp sgt i32 %.02129.i, 1
  br i1 %53, label %.lr.ph.i, label %.thread62, !llvm.loop !25

.critedge.i:                                      ; preds = %.preheader.i
  %.not.i = icmp eq i32 %41, 0
  br i1 %.not.i, label %.thread62, label %.thread.i

.thread.i:                                        ; preds = %.critedge.i
  %54 = sext i32 %41 to i64
  br label %57

55:                                               ; preds = %.lr.ph.i
  %56 = icmp samesign ugt i32 %.02129.i, 268435455
  br i1 %56, label %get_obu_bit_length.exit.thread, label %57

57:                                               ; preds = %55, %.thread.i
  %.02128.i = phi i32 [ %41, %.thread.i ], [ %.02129.i, %55 ]
  %.pn26.i = phi i64 [ %54, %.thread.i ], [ %48, %55 ]
  %.pn.i = getelementptr i8, ptr %40, i64 %.pn26.i
  %.in.i = getelementptr i8, ptr %.pn.i, i64 -1
  %58 = load i8, ptr %.in.i, align 1, !tbaa !4
  %59 = shl nsw i32 %.02128.i, 3
  %.not24.i = icmp eq i8 %58, 0
  br i1 %.not24.i, label %get_obu_bit_length.exit, label %60

60:                                               ; preds = %57
  %61 = tail call range(i8 0, 9) i8 @llvm.cttz.i8(i8 %58, i1 true)
  %62 = xor i8 %61, -1
  %.neg.i = sext i8 %62 to i32
  %63 = add i32 %59, %.neg.i
  br label %get_obu_bit_length.exit

get_obu_bit_length.exit.thread:                   ; preds = %55, %45
  %64 = getelementptr inbounds nuw i8, ptr %33, i64 16
  store i32 -34, ptr %64, align 8, !tbaa !26
  br label %71

.thread62:                                        ; preds = %51, %.critedge.i
  %65 = getelementptr inbounds nuw i8, ptr %33, i64 16
  store i32 0, ptr %65, align 8, !tbaa !26
  br label %70

get_obu_bit_length.exit:                          ; preds = %45, %57, %60
  %.0.i = phi i32 [ %63, %60 ], [ %59, %57 ], [ %47, %45 ]
  %66 = getelementptr inbounds nuw i8, ptr %33, i64 16
  store i32 %.0.i, ptr %66, align 8, !tbaa !26
  %67 = icmp slt i32 %.0.i, 0
  br i1 %67, label %71, label %68

68:                                               ; preds = %get_obu_bit_length.exit
  %69 = icmp eq i32 %.0.i, 0
  br i1 %69, label %70, label %72

70:                                               ; preds = %.thread62, %68
  switch i32 %43, label %71 [
    i32 2, label %72
    i32 15, label %72
  ]

71:                                               ; preds = %get_obu_bit_length.exit.thread, %70, %get_obu_bit_length.exit
  tail call void (ptr, i32, ptr, ...) @av_log(ptr noundef %3, i32 noundef 16, ptr noundef nonnull @.str.1, i32 noundef %43) #6
  br label %75, !llvm.loop !27

72:                                               ; preds = %70, %70, %68
  %73 = load i32, ptr %9, align 8, !tbaa !20
  %74 = add nsw i32 %73, 1
  store i32 %74, ptr %9, align 8, !tbaa !20
  br label %75

75:                                               ; preds = %72, %71
  %76 = ptrtoint ptr %38 to i64
  %77 = sub i64 %10, %76
  %78 = trunc i64 %77 to i32
  %79 = icmp sgt i32 %78, 0
  br i1 %79, label %13, label %.thread65

.thread65:                                        ; preds = %75, %29, %18, %21, %bytestream2_init.exit
  %.4 = phi i32 [ 0, %bytestream2_init.exit ], [ -12, %21 ], [ -12, %18 ], [ %34, %29 ], [ 0, %75 ]
  ret i32 %.4
}